; Function Attrs: nounwind uwtable
define dso_local ptr @flatten_group_exprs(ptr noundef %0, ptr noundef %1, ptr noundef %2) local_unnamed_addr #0 {
  %4 = alloca %struct.flatten_join_alias_vars_context, align 8
  call void @llvm.lifetime.start.p0(i64 24, ptr nonnull %4) #6
  store ptr %0, ptr %4, align 8
  %5 = getelementptr inbounds nuw i8, ptr %4, i64 8
  store ptr %1, ptr %5, align 8
  %6 = getelementptr inbounds nuw i8, ptr %4, i64 16
  store i32 0, ptr %6, align 8
  %7 = getelementptr inbounds nuw i8, ptr %1, i64 47
  %8 = load i8, ptr %7, align 1, !range !4, !noundef !5
  %9 = getelementptr inbounds nuw i8, ptr %4, i64 20
  store i8 %8, ptr %9, align 4
  %10 = getelementptr inbounds nuw i8, ptr %4, i64 21
  store i8 %8, ptr %10, align 1
  %11 = call ptr @flatten_group_exprs_mutator(ptr noundef %2, ptr noundef nonnull %4)
  call void @llvm.lifetime.end.p0(i64 24, ptr nonnull %4) #6
  ret ptr %11
}